; Function Attrs: mustprogress uwtable
define noalias noundef ptr @lean_st_ref_swap(ptr noundef captures(none) %0, ptr noundef %1, ptr noundef readnone captures(none) %2) local_unnamed_addr #0 {
  %.val = load i32, ptr %0, align 4, !tbaa !7
  %spec.select.i = icmp slt i32 %.val, 1
  br i1 %spec.select.i, label %4, label %13

4:                                                ; preds = %3
  tail call void @lean_mark_mt(ptr noundef %1)
  %5 = getelementptr inbounds nuw i8, ptr %0, i64 8
  %6 = ptrtoint ptr %1 to i64
  br label %7

7:                                                ; preds = %7, %4
  %8 = atomicrmw xchg ptr %5, i64 %6 seq_cst, align 8
  %.not = icmp eq i64 %8, 0
  br i1 %.not, label %7, label %9, !llvm.loop !109

9:                                                ; preds = %7
  tail call void @lean_inc_heartbeat()
  %10 = tail call noalias ptr @mi_malloc_small(i64 noundef 24) #27
  %11 = icmp eq ptr %10, null
  br i1 %11, label %12, label %.thread

12:                                               ; preds = %9
  tail call void @lean_internal_panic_out_of_memory() #28
  unreachable

.thread:                                          ; preds = %9
  %.0.i.i.le = inttoptr i64 %8 to ptr
  br label %_ZN4lean18io_result_mk_errorEP11lean_object.exit

13:                                               ; preds = %3
  %14 = getelementptr inbounds nuw i8, ptr %0, i64 8
  %15 = load ptr, ptr %14, align 8, !tbaa !105
  %16 = icmp eq ptr %15, null
  br i1 %16, label %17, label %22

17:                                               ; preds = %13
  %18 = load ptr, ptr @_ZN4leanL23g_io_error_nullptr_readE, align 8, !tbaa !3
  tail call void @lean_inc_heartbeat()
  %19 = tail call noalias ptr @mi_malloc_small(i64 noundef 24) #27
  %20 = icmp eq ptr %19, null
  br i1 %20, label %21, label %_ZN4lean18io_result_mk_errorEP11lean_object.exit

21:                                               ; preds = %17
  tail call void @lean_internal_panic_out_of_memory() #28
  unreachable

22:                                               ; preds = %13
  store ptr %1, ptr %14, align 8, !tbaa !105
  tail call void @lean_inc_heartbeat()
  %23 = tail call noalias ptr @mi_malloc_small(i64 noundef 24) #27
  %24 = icmp eq ptr %23, null
  br i1 %24, label %25, label %_ZN4lean18io_result_mk_errorEP11lean_object.exit

25:                                               ; preds = %22
  tail call void @lean_internal_panic_out_of_memory() #28
  unreachable

_ZN4lean18io_result_mk_errorEP11lean_object.exit: ; preds = %22, %17, %.thread
  %.sink22 = phi ptr [ %10, %.thread ], [ %19, %17 ], [ %23, %22 ]
  %.sink = phi i32 [ 131096, %.thread ], [ 16908312, %17 ], [ 131096, %22 ]
  %.0.i.i.le.sink = phi ptr [ %.0.i.i.le, %.thread ], [ %18, %17 ], [ %15, %22 ]
  %26 = getelementptr inbounds nuw i8, ptr %.sink22, i64 4
  store i32 1, ptr %.sink22, align 4, !tbaa !7
  store i32 %.sink, ptr %26, align 4
  %27 = getelementptr inbounds nuw i8, ptr %.sink22, i64 8
  store ptr %.0.i.i.le.sink, ptr %27, align 8, !tbaa !3
  %28 = getelementptr inbounds nuw i8, ptr %.sink22, i64 16
  store ptr inttoptr (i64 1 to ptr), ptr %28, align 8, !tbaa !3
  ret ptr %.sink22
}